; Function Attrs: mustprogress uwtable
define noundef double @_ZNK8QuantLib6detail14D0Interpolator2d0Ed(ptr nocapture noundef nonnull readonly align 8 dereferenceable(184) %this, double noundef %phi) local_unnamed_addr #0 align 2 {
entry:
  %ref.tmp.i.i = alloca %"struct.boost::math::policies::policy", align 1
  %gamma_ = getelementptr inbounds nuw i8, ptr %this, i64 48
  %0 = load double, ptr %gamma_, align 8, !tbaa !71
  %expiryTime_ = getelementptr inbounds nuw i8, ptr %this, i64 8
  %1 = load double, ptr %expiryTime_, align 8, !tbaa !72
  %div = fdiv double %phi, %1
  %cmp.i = fcmp ogt double %div, 0.000000e+00
  %.sroa.speculated = select i1 %cmp.i, double %div, double 0.000000e+00
  %conv.i.i = fpext double %0 to x86_fp80
  %conv1.i.i = fpext double %.sroa.speculated to x86_fp80
  call void @llvm.lifetime.start.p0(i64 1, ptr nonnull %ref.tmp.i.i) #32
  %call.i.i = call noundef x86_fp80 @_ZN5boost4math6detail20gamma_incomplete_impIeNS0_8policies6policyINS3_13promote_floatILb0EEENS3_14promote_doubleILb0EEENS3_14default_policyES9_S9_S9_S9_S9_S9_S9_S9_S9_S9_EEEET_SB_SB_bbRKT0_PSB_(x86_fp80 noundef %conv.i.i, x86_fp80 noundef %conv1.i.i, i1 noundef zeroext true, i1 noundef zeroext true, ptr noundef nonnull align 1 dereferenceable(1) %ref.tmp.i.i, ptr noundef null)
  %2 = call noundef x86_fp80 @llvm.fabs.f80(x86_fp80 %call.i.i)
  %cmp.i.i.i = fcmp ogt x86_fp80 %2, 0xK43FEFFFFFFFFFFFFF800
  br i1 %cmp.i.i.i, label %if.then.i.i.i, label %_ZN5boost4math7gamma_qIddEENS0_5tools12promote_argsIT_T0_ffffE4typeES4_S5_.exit

if.then.i.i.i:                                    ; preds = %entry
  call void @_ZN5boost4math8policies6detail11raise_errorISt14overflow_errordEEvPKcS6_(ptr noundef nonnull @.str.110, ptr noundef nonnull @.str.53)
  br label %_ZN5boost4math7gamma_qIddEENS0_5tools12promote_argsIT_T0_ffffE4typeES4_S5_.exit

_ZN5boost4math7gamma_qIddEENS0_5tools12promote_argsIT_T0_ffffE4typeES4_S5_.exit: ; preds = %entry, %if.then.i.i.i
  %retval.0.i.i.i = fptrunc x86_fp80 %call.i.i to double
  call void @llvm.lifetime.end.p0(i64 1, ptr nonnull %ref.tmp.i.i) #32
  ret double %retval.0.i.i.i
}